; Function Attrs: mustprogress nofree norecurse nosync nounwind willreturn memory(argmem: write) uwtable
define hidden void @_ZN14MallocLimitSet18set_category_limitE8MEMFLAGSm15MallocLimitMode(ptr nocapture noundef nonnull writeonly align 8 dereferenceable(464) %0, i8 noundef zeroext %1, i64 noundef %2, i32 noundef %3) local_unnamed_addr #1 align 2 {
  %5 = getelementptr inbounds i8, ptr %0, i64 16
  %6 = zext i8 %1 to i64
  %7 = getelementptr inbounds [28 x %struct.malloclimit], ptr %5, i64 0, i64 %6
  store i64 %2, ptr %7, align 8
  %8 = getelementptr inbounds i8, ptr %7, i64 8
  store i32 %3, ptr %8, align 8
  ret void
}